; Function Attrs: mustprogress nofree norecurse nosync nounwind willreturn memory(argmem: write) uwtable
define hidden void @_ZN5boost4urls6detail8path_refC2ENS_4core17basic_string_viewIcEEmm(ptr nocapture noundef nonnull writeonly align 8 dereferenceable(40) %0, ptr %1, i64 %2, i64 noundef %3, i64 noundef %4) unnamed_addr #8 align 2 {
  store ptr null, ptr %0, align 8, !tbaa !43
  %6 = getelementptr inbounds nuw i8, ptr %0, i64 8
  store ptr %1, ptr %6, align 8, !tbaa !45
  %7 = getelementptr inbounds nuw i8, ptr %0, i64 16
  store i64 %2, ptr %7, align 8, !tbaa !46
  %8 = getelementptr inbounds nuw i8, ptr %0, i64 24
  store i64 %4, ptr %8, align 8, !tbaa !47
  %9 = getelementptr inbounds nuw i8, ptr %0, i64 32
  store i64 %3, ptr %9, align 8, !tbaa !48
  ret void
}